target datalayout = "e-m:e-p270:32:32-p271:32:32-p272:64:64-i64:64-i128:128-f80:128-n8:16:32:64-S128"
target triple = "x86_64-pc-linux-gnu"

%struct.pkcs7_signer_info_st = type { ptr, ptr, ptr, ptr, ptr, ptr, ptr, ptr, ptr }

; Function Attrs: nounwind uwtable
define internal ptr @get_attribute(ptr noundef %0, i32 noundef %1) #0 {
  %3 = alloca ptr, align 8
  %4 = alloca ptr, align 8
  %5 = alloca i32, align 4
  %6 = alloca i32, align 4
  %7 = alloca i32, align 4
  store ptr %0, ptr %4, align 8, !tbaa !114
  store i32 %1, ptr %5, align 4, !tbaa !8
  call void @llvm.lifetime.start.p0(i64 4, ptr %6) #5
  %8 = load ptr, ptr %4, align 8, !tbaa !114
  %9 = load i32, ptr %5, align 4, !tbaa !8
  %10 = call i32 @X509at_get_attr_by_NID(ptr noundef %8, i32 noundef %9, i32 noundef -1)
  store i32 %10, ptr %6, align 4, !tbaa !8
  %11 = load i32, ptr %6, align 4, !tbaa !8
  %12 = icmp slt i32 %11, 0
  br i1 %12, label %13, label %14

13:                                               ; preds = %2
  store ptr null, ptr %3, align 8
  store i32 1, ptr %7, align 4
  br label %19

14:                                               ; preds = %2
  %15 = load ptr, ptr %4, align 8, !tbaa !114
  %16 = load i32, ptr %6, align 4, !tbaa !8
  %17 = call ptr @X509at_get_attr(ptr noundef %15, i32 noundef %16)
  %18 = call ptr @X509_ATTRIBUTE_get0_type(ptr noundef %17, i32 noundef 0)
  store ptr %18, ptr %3, align 8
  store i32 1, ptr %7, align 4
  br label %19

19:                                               ; preds = %14, %13
  call void @llvm.lifetime.end.p0(i64 4, ptr %6) #5
  %20 = load ptr, ptr %3, align 8
  ret ptr %20
}

; Function Attrs: nounwind uwtable
define ptr @PKCS7_get_signed_attribute(ptr noundef %0, i32 noundef %1) #0 {
  %3 = alloca ptr, align 8
  %4 = alloca i32, align 4
  store ptr %0, ptr %3, align 8, !tbaa !107
  store i32 %1, ptr %4, align 4, !tbaa !8
  %5 = load ptr, ptr %3, align 8, !tbaa !107
  %6 = getelementptr inbounds nuw %struct.pkcs7_signer_info_st, ptr %5, i32 0, i32 3
  %7 = load ptr, ptr %6, align 8, !tbaa !113
  %8 = load i32, ptr %4, align 4, !tbaa !8
  %9 = call ptr @get_attribute(ptr noundef %7, i32 noundef %8)
  ret ptr %9
}